Certificate:
    Data:
        Version: 3 (0x2)
        Serial Number: 1 (0x1)
        Signature Algorithm: sha256WithRSAEncryption
        Issuer: C=US, ST=NY, O=Bitquery, OU=OPS, CN=rpk.bitquery.io/emailAddress=hello@bitquery.io
        Validity
            Not Before: Apr 25 12:12:03 2024 GMT
            Not After : Apr 23 12:12:03 2034 GMT
        Subject: O=Bitquery, CN=rpk.bitquery.io
        Subject Public Key Info:
            Public Key Algorithm: rsaEncryption
                Public-Key: (2048 bit)
                Modulus:
                    00:b7:0b:e0:26:b1:90:1d:5f:8e:5a:74:17:26:64:
                    8d:40:d6:7f:94:77:39:57:8b:b4:c0:98:e6:a4:db:
                    c8:20:c8:5d:fc:34:e6:0a:c9:28:1e:d2:bc:b1:f0:
                    37:b3:05:d0:3d:d0:21:04:9f:54:4a:e2:fc:8e:a6:
                    46:42:2c:60:e2:dc:ac:44:ed:fa:8c:38:67:22:f3:
                    67:8a:e3:33:8b:8f:68:d2:d4:fc:59:b4:14:5c:ea:
                    dd:a5:cd:f8:ff:01:ed:ca:9a:fa:36:d6:3b:49:26:
                    c7:d1:b8:c1:08:50:22:53:23:eb:17:1c:af:50:d6:
                    23:4b:62:97:80:38:b9:85:8a:d1:76:1a:f0:bc:de:
                    e3:75:b6:3a:99:57:91:46:58:4a:11:02:e5:5b:10:
                    cb:c6:c3:95:9e:74:4a:56:b6:57:80:4c:53:57:1a:
                    c8:f6:e8:2c:21:02:ad:3e:dd:96:ae:9a:f4:ac:7d:
                    16:88:06:b7:96:dd:1c:1c:62:1d:08:91:d5:2a:82:
                    fa:60:cc:c2:53:dd:bc:76:55:ee:29:ad:b5:05:35:
                    46:c4:8e:18:6c:cb:62:f4:86:4b:8e:3f:af:da:87:
                    d1:69:4d:21:26:f6:b9:72:4f:6d:f5:d7:20:50:07:
                    2a:70:dc:52:19:d2:eb:74:fc:96:df:99:66:41:d6:
                    72:07
                Exponent: 65537 (0x10001)
        X509v3 extensions:
            X509v3 Key Usage: critical
                Digital Signature, Non Repudiation, Key Encipherment, Certificate Sign
            X509v3 Basic Constraints: critical
                CA:TRUE, pathlen:1
            X509v3 Subject Alternative Name:
                DNS:rpk0.bitquery.io, DNS:rpk1.bitquery.io, DNS:rpk2.bitquery.io
            X509v3 Subject Key Identifier:
                C1:16:D9:CC:57:1B:29:ED:1E:68:E9:AD:92:2F:7E:D1:96:FF:94:B9
            X509v3 Authority Key Identifier:
                DirName:/C=US/ST=NY/O=Bitquery/OU=OPS/CN=rpk.bitquery.io/emailAddress=hello@bitquery.io
                serial:3F:53:DF:0A:99:2C:B8:10:D3:9D:8E:EC:29:8E:62:7F:E2:B6:DC:3C
    Signature Algorithm: sha256WithRSAEncryption
    Signature Value:
        04:2e:e1:dc:a7:cd:dc:60:8b:3c:dd:02:ac:bb:06:f3:75:82:
        45:2c:5c:7d:9d:3f:36:70:11:5c:28:ec:93:c5:c8:73:3a:ec:
        6e:56:9d:09:81:37:49:88:fe:75:ee:7c:78:31:92:a4:c9:6d:
        3c:0d:23:5c:72:65:4c:97:e8:98:8c:b0:24:cd:40:e0:76:76:
        3d:d9:c8:79:95:74:0e:c0:99:dd:12:68:6a:8d:d0:0a:4d:59:
        94:9f:2a:77:84:ae:31:4b:5a:e1:4a:9f:10:69:cd:da:f7:78:
        39:1d:12:ef:15:05:e5:f6:e8:30:4d:af:76:8e:68:c5:b0:26:
        fc:76:86:c8:47:a1:c2:b1:77:6b:bf:88:39:78:e3:27:6b:38:
        ba:f6:e7:8a:3c:4e:bb:cf:74:f3:89:99:ff:02:be:99:76:9c:
        4e:ee:23:38:a9:7e:8c:37:a1:f4:7e:b2:bc:ee:f1:61:9b:37:
        79:31:e5:e9:3d:30:ae:75:d3:42:9a:4f:ac:5e:24:52:96:f3:
        88:33:51:61:fa:6d:7f:51:70:30:bd:09:a7:67:a6:6b:2f:b5:
        72:97:bf:15:59:01:e3:8f:20:45:80:f4:3e:78:d6:c3:76:5f:
        1a:72:bf:6e:0a:58:8a:6e:50:b8:3c:e7:70:7b:87:b8:b4:82:
        ee:6a:79:69
-----BEGIN CERTIFICATE-----
MIIESjCCAzKgAwIBAgIBATANBgkqhkiG9w0BAQsFADB3MQswCQYDVQQGEwJVUzEL
MAkGA1UECAwCTlkxETAPBgNVBAoMCEJpdHF1ZXJ5MQwwCgYDVQQLDANPUFMxGDAW
BgNVBAMMD3Jway5iaXRxdWVyeS5pbzEgMB4GCSqGSIb3DQEJARYRaGVsbG9AYml0
cXVlcnkuaW8wHhcNMjQwNDI1MTIxMjAzWhcNMzQwNDIzMTIxMjAzWjAtMREwDwYD
VQQKDAhCaXRxdWVyeTEYMBYGA1UEAwwPcnBrLmJpdHF1ZXJ5LmlvMIIBIjANBgkq
hkiG9w0BAQEFAAOCAQ8AMIIBCgKCAQEAtwvgJrGQHV+OWnQXJmSNQNZ/lHc5V4u0
wJjmpNvIIMhd/DTmCskoHtK8sfA3swXQPdAhBJ9USuL8jqZGQixg4tysRO36jDhn
IvNniuMzi49o0tT8WbQUXOrdpc34/wHtypr6NtY7SSbH0bjBCFAiUyPrFxyvUNYj
S2KXgDi5hYrRdhrwvN7jdbY6mVeRRlhKEQLlWxDLxsOVnnRKVrZXgExTVxrI9ugs
IQKtPt2Wrpr0rH0WiAa3lt0cHGIdCJHVKoL6YMzCU928dlXuKa21BTVGxI4YbMti
9IZLjj+v2ofRaU0hJva5ck9t9dcgUAcqcNxSGdLrdPyW35lmQdZyBwIDAQABo4IB
KTCCASUwDgYDVR0PAQH/BAQDAgLkMBIGA1UdEwEB/wQIMAYBAf8CAQEwPwYDVR0R
BDgwNoIQcnBrMC5iaXRxdWVyeS5pb4IQcnBrMS5iaXRxdWVyeS5pb4IQcnBrMi5i
aXRxdWVyeS5pbzAdBgNVHQ4EFgQUwRbZzFcbKe0eaOmtki9+0Zb/lLkwgZ4GA1Ud
IwSBljCBk6F7pHkwdzELMAkGA1UEBhMCVVMxCzAJBgNVBAgMAk5ZMREwDwYDVQQK
DAhCaXRxdWVyeTEMMAoGA1UECwwDT1BTMRgwFgYDVQQDDA9ycGsuYml0cXVlcnku
aW8xIDAeBgkqhkiG9w0BCQEWEWhlbGxvQGJpdHF1ZXJ5LmlvghQ/U98KmSy4ENOd
juwpjmJ/4rbcPDANBgkqhkiG9w0BAQsFAAOCAQEABC7h3KfN3GCLPN0CrLsG83WC
RSxcfZ0/NnARXCjsk8XIczrsbladCYE3SYj+de58eDGSpMltPA0jXHJlTJfomIyw
JM1A4HZ2PdnIeZV0DsCZ3RJoao3QCk1ZlJ8qd4SuMUta4UqfEGnN2vd4OR0S7xUF
5fboME2vdo5oxbAm/HaGyEehwrF3a7+IOXjjJ2s4uvbnijxOu89084mZ/wK+mXac
Tu4jOKl+jDeh9H6yvO7xYZs3eTHl6T0wrnXTQppPrF4kUpbziDNRYfptf1FwML0J
p2emay+1cpe/FVkB448gRYD0PnjWw3ZfGnK/bgpYim5QuDzncHuHuLSC7mp5aQ==
-----END CERTIFICATE-----
